#include <math.h>
#include <stdio.h>
#include <stdlib.h>
#include <string.h>

int main(){
	int i,j,n=0,l,t=0;
	scanf("%d",&l);
	for(i=3;i<=l-2;i++){
		for(j=2;j<i;j++){
			if(i%j==0){
				n=1;
				break;
			}
			else{
				if((i+2)%j==0){
					n=1;
					break;
				}
			}
        }
		if(n==0){
			printf("%d %d\n",i,i+2);
            t=1;
		}
		n=0;

		
	}
	if(t==0){
		printf("empty");
	}
}