; ModuleID = 'source-C-CXX/59/1685.c'
source_filename = "source-C-CXX/59/1685.c"
target datalayout = "e-m:e-p270:32:32-p271:32:32-p272:64:64-i64:64-f80:128-n8:16:32:64-S128"
target triple = "x86_64-pc-linux-gnu"

@.str = private unnamed_addr constant [3 x i8] c"%d\00", align 1
@.str.1 = private unnamed_addr constant [7 x i8] c"%d %d\0A\00", align 1
@.str.2 = private unnamed_addr constant [6 x i8] c"empty\00", align 1

; Function Attrs: nofree nounwind sspstrong uwtable
define dso_local i32 @main() local_unnamed_addr #0 {
  %1 = alloca i32, align 4
  %2 = bitcast i32* %1 to i8*
  call void @llvm.lifetime.start.p0i8(i64 4, i8* nonnull %2) #3
  %3 = call i32 (i8*, ...) @__isoc99_scanf(i8* getelementptr inbounds ([3 x i8], [3 x i8]* @.str, i64 0, i64 0), i32* nonnull %1)
  %4 = load i32, i32* %1, align 4, !tbaa !5
  %5 = icmp slt i32 %4, 5
  br i1 %5, label %32, label %6

6:                                                ; preds = %0, %24
  %7 = phi i32 [ %25, %24 ], [ %4, %0 ]
  %8 = phi i32 [ %26, %24 ], [ 0, %0 ]
  %9 = phi i32 [ %27, %24 ], [ 3, %0 ]
  %10 = add nuw nsw i32 %9, 2
  br label %13

11:                                               ; preds = %17
  %12 = icmp eq i32 %20, %9
  br i1 %12, label %21, label %13, !llvm.loop !9

13:                                               ; preds = %6, %11
  %14 = phi i32 [ %20, %11 ], [ 2, %6 ]
  %15 = urem i32 %9, %14
  %16 = icmp eq i32 %15, 0
  br i1 %16, label %24, label %17

17:                                               ; preds = %13
  %18 = urem i32 %10, %14
  %19 = icmp eq i32 %18, 0
  %20 = add nuw nsw i32 %14, 1
  br i1 %19, label %24, label %11

21:                                               ; preds = %11
  %22 = call i32 (i8*, ...) @printf(i8* nonnull dereferenceable(1) getelementptr inbounds ([7 x i8], [7 x i8]* @.str.1, i64 0, i64 0), i32 %9, i32 %10)
  %23 = load i32, i32* %1, align 4, !tbaa !5
  br label %24

24:                                               ; preds = %13, %17, %21
  %25 = phi i32 [ %23, %21 ], [ %7, %17 ], [ %7, %13 ]
  %26 = phi i32 [ 1, %21 ], [ %8, %17 ], [ %8, %13 ]
  %27 = add nuw nsw i32 %9, 1
  %28 = add nsw i32 %25, -2
  %29 = icmp slt i32 %9, %28
  br i1 %29, label %6, label %30, !llvm.loop !11

30:                                               ; preds = %24
  %31 = icmp eq i32 %26, 0
  br i1 %31, label %32, label %34

32:                                               ; preds = %0, %30
  %33 = call i32 (i8*, ...) @printf(i8* nonnull dereferenceable(1) getelementptr inbounds ([6 x i8], [6 x i8]* @.str.2, i64 0, i64 0))
  br label %34

34:                                               ; preds = %32, %30
  call void @llvm.lifetime.end.p0i8(i64 4, i8* nonnull %2) #3
  ret i32 0
}

; Function Attrs: argmemonly mustprogress nofree nosync nounwind willreturn
declare void @llvm.lifetime.start.p0i8(i64 immarg, i8* nocapture) #1

; Function Attrs: nofree nounwind
declare noundef i32 @__isoc99_scanf(i8* nocapture noundef readonly, ...) local_unnamed_addr #2

; Function Attrs: nofree nounwind
declare noundef i32 @printf(i8* nocapture noundef readonly, ...) local_unnamed_addr #2

; Function Attrs: argmemonly mustprogress nofree nosync nounwind willreturn
declare void @llvm.lifetime.end.p0i8(i64 immarg, i8* nocapture) #1


!llvm.module.flags = !{!0, !1, !2, !3}
!llvm.ident = !{!4}

!0 = !{i32 1, !"wchar_size", i32 4}
!1 = !{i32 7, !"PIC Level", i32 2}
!2 = !{i32 7, !"PIE Level", i32 2}
!3 = !{i32 7, !"uwtable", i32 1}
!4 = !{!"clang version 13.0.0"}
!5 = !{!6, !6, i64 0}
!6 = !{!"int", !7, i64 0}
!7 = !{!"omnipotent char", !8, i64 0}
!8 = !{!"Simple C/C++ TBAA"}
!9 = distinct !{!9, !10}
!10 = !{!"llvm.loop.mustprogress"}
!11 = distinct !{!11, !10}
